	.file	"fcomp.c"
	.text
.Ltext0:
	.cfi_sections	.debug_frame
	.p2align 4,,15
.globl do_nothing
	.type	do_nothing, @function
do_nothing:
.LFB0:
	.file 1 "fcomp.c"
	.loc 1 5 0
	.cfi_startproc
	pushl	%ebp
.LCFI0:
	.cfi_def_cfa_offset 8
	movl	%esp, %ebp
	.cfi_offset 5, -8
.LCFI1:
	.cfi_def_cfa_register 5
	.loc 1 5 0
	popl	%ebp
	.cfi_restore 5
.LCFI2:
	.cfi_def_cfa 4, 4
	ret
	.cfi_endproc
.LFE0:
	.size	do_nothing, .-do_nothing
	.p2align 4,,15
.globl set_fpu_double
	.type	set_fpu_double, @function
set_fpu_double:
.LFB1:
	.loc 1 9 0
	.cfi_startproc
	pushl	%ebp
.LCFI3:
	.cfi_def_cfa_offset 8
	movl	%esp, %ebp
	.cfi_offset 5, -8
.LCFI4:
	.cfi_def_cfa_register 5
	subl	$16, %esp
	.loc 1 10 0
	movl	$639, -4(%ebp)
.LVL0:
	.loc 1 11 0
#APP
# 11 "fcomp.c" 1
	fldcw -4(%ebp)
# 0 "" 2
	.loc 1 12 0
#NO_APP
	leave
	.cfi_restore 5
.LCFI5:
	.cfi_def_cfa 4, 4
	ret
	.cfi_endproc
.LFE1:
	.size	set_fpu_double, .-set_fpu_double
	.p2align 4,,15
.globl recip
	.type	recip, @function
recip:
.LFB2:
	.loc 1 18 0
	.cfi_startproc
.LVL1:
	pushl	%ebp
.LCFI6:
	.cfi_def_cfa_offset 8
	movl	%esp, %ebp
	.cfi_offset 5, -8
.LCFI7:
	.cfi_def_cfa_register 5
	.loc 1 19 0
	movl	rcnt, %eax
	incl	%eax
	movl	%eax, rcnt
	.loc 1 20 0
	fld1
	fidivl	8(%ebp)
	.loc 1 21 0
	popl	%ebp
	.cfi_restore 5
.LCFI8:
	.cfi_def_cfa 4, 4
	ret
	.cfi_endproc
.LFE2:
	.size	recip, .-recip
	.p2align 4,,15
.globl dequal
	.type	dequal, @function
dequal:
.LFB3:
	.loc 1 23 0
	.cfi_startproc
.LVL2:
	pushl	%ebp
.LCFI9:
	.cfi_def_cfa_offset 8
	movl	%esp, %ebp
	.cfi_offset 5, -8
.LCFI10:
	.cfi_def_cfa_register 5
	.loc 1 24 0
	fldl	16(%ebp)
	fldl	8(%ebp)
	fucompp
	fnstsw	%ax
	andb	$69, %ah
	cmpb	$64, %ah
	sete	%al
	andl	$255, %eax
	.loc 1 25 0
	popl	%ebp
	.cfi_restore 5
.LCFI11:
	.cfi_def_cfa 4, 4
	ret
	.cfi_endproc
.LFE3:
	.size	dequal, .-dequal
	.section	.rodata.str1.1,"aMS",@progbits,1
.LC2:
	.string	"test1 t1: r1 %f %c= r2 %f\n"
.LC3:
	.string	"test1 t2: r1 %f %c= r2 %f\n"
	.text
	.p2align 4,,15
.globl test1
	.type	test1, @function
test1:
.LFB4:
	.loc 1 27 0
	.cfi_startproc
.LVL3:
	pushl	%ebp
.LCFI12:
	.cfi_def_cfa_offset 8
	movl	%esp, %ebp
	.cfi_offset 5, -8
.LCFI13:
	.cfi_def_cfa_register 5
	pushl	%ebx
	subl	$36, %esp
	movl	8(%ebp), %ebx
	.cfi_offset 3, -12
	.loc 1 31 0
	pushl	%ebx
	.cfi_escape 0x2e,0x4
	call	recip
	fstpl	-16(%ebp)
.LVL4:
	.loc 1 32 0
	pushl	%ebx
	call	recip
.LVL5:
	.loc 1 34 0
	subl	$8, %esp
	fstl	(%esp)
	movl	-12(%ebp), %ecx
	pushl	%ecx
	movl	-16(%ebp), %edx
	pushl	%edx
	fstpl	-40(%ebp)
	.cfi_escape 0x2e,0x10
	call	dequal
.LVL6:
	movl	%eax, %ebx
.LVL7:
	.loc 1 35 0
	addl	$24, %esp
	fldl	-40(%ebp)
.LVL8:
	fldl	-16(%ebp)
.LVL9:
	fucomp	%st(1)
	fnstsw	%ax
.LVL10:
	andb	$69, %ah
	xorb	$64, %ah
	jne	.L8
	movl	$61, %eax
.L6:
	.loc 1 35 0 is_stmt 0 discriminator 3
	subl	$16, %esp
	fstl	(%esp)
	pushl	%eax
	movl	-12(%ebp), %eax
	pushl	%eax
	movl	-16(%ebp), %ecx
	pushl	%ecx
	pushl	$.LC2
	fstpl	-40(%ebp)
	.cfi_escape 0x2e,0x20
	call	printf
	.loc 1 36 0 is_stmt 1 discriminator 3
	addl	$16, %esp
	cmpl	$1, %ebx
	sbbl	%eax, %eax
	andl	$-28, %eax
	addl	$61, %eax
	fldl	-40(%ebp)
	fstpl	(%esp)
	pushl	%eax
	movl	-12(%ebp), %edx
	pushl	%edx
	movl	-16(%ebp), %eax
	pushl	%eax
	pushl	$.LC3
	call	printf
	addl	$32, %esp
	.loc 1 37 0 discriminator 3
	movl	-4(%ebp), %ebx
.LVL11:
	leave
	.cfi_remember_state
	.cfi_restore 5
.LCFI14:
	.cfi_def_cfa 4, 4
	.cfi_restore 3
	ret
.LVL12:
	.p2align 4,,15
.L8:
.LCFI15:
	.cfi_restore_state
	.loc 1 35 0
	movl	$33, %eax
	jmp	.L6
	.cfi_endproc
.LFE4:
	.size	test1, .-test1
	.section	.rodata.str1.1
.LC4:
	.string	"test2 t1: r1 %f %c= 1.0/10.0\n"
	.text
	.p2align 4,,15
.globl test2
	.type	test2, @function
test2:
.LFB5:
	.loc 1 41 0
	.cfi_startproc
.LVL13:
	pushl	%ebp
.LCFI16:
	.cfi_def_cfa_offset 8
	movl	%esp, %ebp
	.cfi_offset 5, -8
.LCFI17:
	.cfi_def_cfa_register 5
	pushl	%ebx
	subl	$4, %esp
	movl	8(%ebp), %ebx
	.cfi_offset 3, -12
	.loc 1 44 0
	pushl	%ebx
	.cfi_escape 0x2e,0x4
	call	recip
.LVL14:
	.loc 1 45 0
	fld1
.LVL15:
	pushl	%ebx
	fidivl	(%esp)
	fxch	%st(1)
	.loc 1 46 0
	popl	%ebx
	popl	%eax
	fucom	%st(1)
	fnstsw	%ax
	fstp	%st(1)
	andb	$69, %ah
	xorb	$64, %ah
	je	.L14
	movl	$33, %eax
.L12:
	.loc 1 46 0 is_stmt 0 discriminator 3
	pushl	%eax
	subl	$8, %esp
	fstpl	(%esp)
	pushl	$.LC4
	.cfi_escape 0x2e,0x10
	call	printf
	addl	$16, %esp
	.loc 1 47 0 is_stmt 1 discriminator 3
	movl	-4(%ebp), %ebx
	leave
	.cfi_remember_state
	.cfi_restore 5
.LCFI18:
	.cfi_def_cfa 4, 4
	.cfi_restore 3
	ret
	.p2align 4,,15
.L14:
.LCFI19:
	.cfi_restore_state
	.loc 1 46 0
	movl	$61, %eax
	jmp	.L12
	.cfi_endproc
.LFE5:
	.size	test2, .-test2
	.p2align 4,,15
.globl recip_l
	.type	recip_l, @function
recip_l:
.LFB6:
	.loc 1 53 0
	.cfi_startproc
.LVL16:
	pushl	%ebp
.LCFI20:
	.cfi_def_cfa_offset 8
	movl	%esp, %ebp
	.cfi_offset 5, -8
.LCFI21:
	.cfi_def_cfa_register 5
	.loc 1 54 0
	fld1
	fidivl	8(%ebp)
	.loc 1 55 0
	popl	%ebp
	.cfi_restore 5
.LCFI22:
	.cfi_def_cfa 4, 4
	ret
	.cfi_endproc
.LFE6:
	.size	recip_l, .-recip_l
	.p2align 4,,15
.globl dlequal
	.type	dlequal, @function
dlequal:
.LFB7:
	.loc 1 59 0
	.cfi_startproc
.LVL17:
	pushl	%ebp
.LCFI23:
	.cfi_def_cfa_offset 8
	movl	%esp, %ebp
	.cfi_offset 5, -8
.LCFI24:
	.cfi_def_cfa_register 5
	.loc 1 60 0
	fldt	20(%ebp)
	fldt	8(%ebp)
	fucompp
	fnstsw	%ax
	andb	$69, %ah
	cmpb	$64, %ah
	sete	%al
	andl	$255, %eax
	.loc 1 61 0
	popl	%ebp
	.cfi_restore 5
.LCFI25:
	.cfi_def_cfa 4, 4
	ret
	.cfi_endproc
.LFE7:
	.size	dlequal, .-dlequal
	.section	.rodata.str1.1
.LC5:
	.string	"test3 t1: r1 %f %c= r2 %f\n"
.LC6:
	.string	"test3 t2: r1 %f %c= r2 %f\n"
.LC7:
	.string	"test3 t3: r1 %f %c= 1.0/10.0\n"
	.text
	.p2align 4,,15
.globl test3
	.type	test3, @function
test3:
.LFB8:
	.loc 1 63 0
	.cfi_startproc
.LVL18:
	pushl	%ebp
.LCFI26:
	.cfi_def_cfa_offset 8
	movl	%esp, %ebp
	.cfi_offset 5, -8
.LCFI27:
	.cfi_def_cfa_register 5
	pushl	%ebx
	subl	$36, %esp
	.loc 1 67 0
	movl	8(%ebp), %edx
	pushl	%edx
	.cfi_offset 3, -12
	.cfi_escape 0x2e,0x4
	call	recip_l
	subl	$20, %esp
.LVL19:
	.loc 1 70 0
	fld	%st(0)
	fstpt	12(%esp)
	fld	%st(0)
	fstpt	(%esp)
	fstpt	-40(%ebp)
	.cfi_escape 0x2e,0x18
	call	dlequal
.LVL20:
	addl	$24, %esp
	movl	%eax, %ebx
.LVL21:
	.loc 1 72 0
	fldt	-40(%ebp)
.LVL22:
	fstl	-16(%ebp)
	fldl	-16(%ebp)
.LVL23:
	fxch	%st(1)
	fucomp	%st(0)
	fnstsw	%ax
.LVL24:
	andb	$69, %ah
	xorb	$64, %ah
	jne	.L21
	movl	$61, %eax
.L18:
	.loc 1 72 0 is_stmt 0 discriminator 3
	subl	$16, %esp
	fstl	(%esp)
	pushl	%eax
	subl	$8, %esp
	fstl	(%esp)
	pushl	$.LC5
	fstpl	-40(%ebp)
	.cfi_escape 0x2e,0x20
	call	printf
	.loc 1 74 0 is_stmt 1 discriminator 3
	addl	$32, %esp
	testl	%ebx, %ebx
	fldl	-40(%ebp)
	je	.L19
	subl	$16, %esp
	fstl	(%esp)
	pushl	$61
	subl	$8, %esp
	fstpl	(%esp)
	pushl	$.LC6
	call	printf
	addl	$32, %esp
	.loc 1 76 0 discriminator 3
	movl	$61, %eax
	fldl	-40(%ebp)
.L20:
	pushl	%eax
	subl	$8, %esp
	fstpl	(%esp)
	pushl	$.LC7
	.cfi_escape 0x2e,0x10
	call	printf
	.loc 1 78 0 discriminator 3
	movl	-4(%ebp), %ebx
.LVL25:
	leave
	.cfi_remember_state
	.cfi_restore 5
.LCFI28:
	.cfi_def_cfa 4, 4
	.cfi_restore 3
	ret
.LVL26:
	.p2align 4,,15
.L21:
.LCFI29:
	.cfi_restore_state
	.loc 1 72 0
	movl	$33, %eax
	jmp	.L18
	.p2align 4,,15
.L19:
	.loc 1 74 0
	subl	$16, %esp
	fstl	(%esp)
	pushl	$33
	subl	$8, %esp
	fstl	(%esp)
	pushl	$.LC6
	fstpl	-40(%ebp)
	.cfi_escape 0x2e,0x20
	call	printf
	addl	$32, %esp
	.loc 1 76 0
	movl	$33, %eax
	fldl	-40(%ebp)
	jmp	.L20
	.cfi_endproc
.LFE8:
	.size	test3, .-test3
	.section	.rodata.str1.4,"aMS",@progbits,1
	.align 4
.LC8:
	.string	"A long double on this machine requires %d bytes\n"
	.text
	.p2align 4,,15
.globl main
	.type	main, @function
main:
.LFB9:
	.loc 1 80 0
	.cfi_startproc
.LVL27:
	leal	4(%esp), %ecx
.LCFI30:
	.cfi_def_cfa 1, 0
	andl	$-16, %esp
	pushl	-4(%ecx)
	pushl	%ebp
	movl	%esp, %ebp
	.cfi_escape 0x10,0x5,0x2,0x75,0x0
	pushl	%ecx
.LCFI31:
	.cfi_escape 0xf,0x3,0x75,0x7c,0x6
	subl	$4, %esp
.LVL28:
	.loc 1 85 0
	cmpl	$1, (%ecx)
	jle	.L23
	.loc 1 86 0
	call	set_fpu_double
.L23:
	.loc 1 87 0
	subl	$12, %esp
	pushl	$10
	.cfi_escape 0x2e,0x10
	call	test1
	.loc 1 89 0
	movl	$10, (%esp)
	call	test2
	.loc 1 91 0
	movl	$10, (%esp)
	call	test3
	.loc 1 93 0
	popl	%ecx
	popl	%eax
	pushl	$12
	pushl	$.LC8
	call	printf
	.loc 1 95 0
	xorl	%eax, %eax
	movl	-4(%ebp), %ecx
.LCFI32:
	.cfi_def_cfa 1, 0
	leave
	leal	-4(%ecx), %esp
.LCFI33:
	.cfi_def_cfa 4, 4
	ret
	.cfi_endproc
.LFE9:
	.size	main, .-main
.globl rcnt
	.bss
	.align 4
	.type	rcnt, @object
	.size	rcnt, 4
rcnt:
	.zero	4
.globl rlcnt
	.align 4
	.type	rlcnt, @object
	.size	rlcnt, 4
rlcnt:
	.zero	4
	.text
.Letext0:
	.section	.note.GNU-stack,"",@progbits
